target datalayout = "e-m:e-p270:32:32-p271:32:32-p272:64:64-i64:64-i128:128-f80:128-n8:16:32:64-S128"
target triple = "x86_64-pc-linux-gnu"

%"class.std::__1::vector" = type { ptr, ptr, %"class.std::__1::__compressed_pair" }
%"class.std::__1::__compressed_pair" = type { %"struct.std::__1::__compressed_pair_elem" }
%"struct.std::__1::__compressed_pair_elem" = type { ptr }
%"struct.mitsuba::ThreadNotifier" = type { i8 }
%"class.std::__1::basic_string" = type { %"class.std::__1::__compressed_pair.10" }
%"class.std::__1::__compressed_pair.10" = type { %"struct.std::__1::__compressed_pair_elem.11" }
%"struct.std::__1::__compressed_pair_elem.11" = type { %"struct.std::__1::basic_string<char>::__rep" }
%"struct.std::__1::basic_string<char>::__rep" = type { %union.anon }
%union.anon = type { %"struct.std::__1::basic_string<char>::__long" }
%"struct.std::__1::basic_string<char>::__long" = type { %struct.anon.12, i64, ptr }
%struct.anon.12 = type { i64 }
%"class.mitsuba::Thread" = type { %"class.mitsuba::Object.base", %"class.std::__1::unique_ptr" }
%"class.mitsuba::Object.base" = type <{ ptr, %"struct.std::__1::atomic.2" }>
%"struct.std::__1::atomic.2" = type { %"struct.std::__1::__atomic_base.3" }
%"struct.std::__1::__atomic_base.3" = type { %"struct.std::__1::__atomic_base.4" }
%"struct.std::__1::__atomic_base.4" = type { %"struct.std::__1::__cxx_atomic_impl.5" }
%"struct.std::__1::__cxx_atomic_impl.5" = type { %"struct.std::__1::__cxx_atomic_base_impl.6" }
%"struct.std::__1::__cxx_atomic_base_impl.6" = type { i32 }
%"class.std::__1::unique_ptr" = type { %"class.std::__1::__compressed_pair.7" }
%"class.std::__1::__compressed_pair.7" = type { %"struct.std::__1::__compressed_pair_elem.8" }
%"struct.std::__1::__compressed_pair_elem.8" = type { ptr }
%"struct.mitsuba::Thread::ThreadPrivate" = type { %"class.std::__1::thread", i64, %"class.std::__1::basic_string", i8, i8, i8, i32, i32, %"class.mitsuba::ref", %"class.mitsuba::ref.17", %"class.mitsuba::ref.18" }
%"class.std::__1::thread" = type { i64 }
%"class.mitsuba::ref" = type { ptr }
%"class.mitsuba::ref.17" = type { ptr }
%"class.mitsuba::ref.18" = type { ptr }
%"class.std::__1::__wrap_iter" = type { ptr }

@_ZN7mitsubaL16registered_tasksE = internal global %"class.std::__1::vector" zeroinitializer, align 8
@_ZN7mitsubaL8notifierE = internal thread_local global %"struct.mitsuba::ThreadNotifier" zeroinitializer, align 1
@_ZN7mitsubaL4selfE = internal thread_local global ptr null, align 8
@_ZN7mitsubaL14this_thread_idE = internal global i32 0, align 4
@_ZTHN7mitsubaL8notifierE = internal alias void (), ptr @__tls_init

; Function Attrs: mustprogress nounwind uwtable
define linkonce_odr hidden noundef nonnull align 1 dereferenceable(1) ptr @_ZNSt3__122__compressed_pair_elemINS_9allocatorIP4TaskEELi1ELb1EE5__getB8ne190000Ev(ptr noundef nonnull align 1 dereferenceable(1) %0) #1 comdat align 2 {
  %2 = alloca ptr, align 8
  store ptr %0, ptr %2, align 8
  %3 = load ptr, ptr %2, align 8
  ret ptr %3
}

; Function Attrs: mustprogress nounwind uwtable
define linkonce_odr hidden void @_ZNSt3__19allocatorIP4TaskE7destroyB8ne190000EPS2_(ptr noundef nonnull align 1 dereferenceable(1) %0, ptr noundef %1) #1 comdat align 2 {
  %3 = alloca ptr, align 8
  %4 = alloca ptr, align 8
  store ptr %0, ptr %3, align 8
  store ptr %1, ptr %4, align 8
  ret void
}

; Function Attrs: mustprogress nounwind uwtable
define linkonce_odr hidden noundef nonnull align 1 dereferenceable(1) ptr @_ZNSt3__117__compressed_pairIPP4TaskNS_9allocatorIS2_EEE6secondB8ne190000Ev(ptr noundef nonnull align 8 dereferenceable(8) %0) #1 comdat align 2 {
  %2 = alloca ptr, align 8
  store ptr %0, ptr %2, align 8
  %3 = load ptr, ptr %2, align 8
  %4 = call noundef nonnull align 1 dereferenceable(1) ptr @_ZNSt3__122__compressed_pair_elemINS_9allocatorIP4TaskEELi1ELb1EE5__getB8ne190000Ev(ptr noundef nonnull align 1 dereferenceable(1) %3) #2
  ret ptr %4
}

; Function Attrs: noreturn nounwind uwtable
define linkonce_odr hidden void @__clang_call_terminate(ptr noundef %0) #7 comdat {
  %2 = call ptr @__cxa_begin_catch(ptr %0) #2
  call void @_ZSt9terminatev() #22
  unreachable
}

; Function Attrs: mustprogress uwtable
define linkonce_odr hidden void @_ZNSt3__116allocator_traitsINS_9allocatorIP4TaskEEE7destroyB8ne190000IS3_TnNS_9enable_ifIXsr13__has_destroyIS4_PT_EE5valueEiE4typeELi0EEEvRS4_S9_(ptr noundef nonnull align 1 dereferenceable(1) %0, ptr noundef %1) #3 comdat align 2 {
  %3 = alloca ptr, align 8
  %4 = alloca ptr, align 8
  store ptr %0, ptr %3, align 8
  store ptr %1, ptr %4, align 8
  %5 = load ptr, ptr %3, align 8
  %6 = load ptr, ptr %4, align 8
  call void @_ZNSt3__19allocatorIP4TaskE7destroyB8ne190000EPS2_(ptr noundef nonnull align 1 dereferenceable(1) %5, ptr noundef %6)
  ret void
}

; Function Attrs: mustprogress nounwind uwtable
define linkonce_odr hidden noundef ptr @_ZNSt3__112__to_addressB8ne190000IP4TaskEEPT_S4_(ptr noundef %0) #1 comdat {
  %2 = alloca ptr, align 8
  store ptr %0, ptr %2, align 8
  %3 = load ptr, ptr %2, align 8
  ret ptr %3
}

; Function Attrs: mustprogress nounwind uwtable
define linkonce_odr hidden noundef nonnull align 1 dereferenceable(1) ptr @_ZNSt3__16vectorIP4TaskNS_9allocatorIS2_EEE7__allocB8ne190000Ev(ptr noundef nonnull align 8 dereferenceable(24) %0) #1 comdat align 2 {
  %2 = alloca ptr, align 8
  store ptr %0, ptr %2, align 8
  %3 = load ptr, ptr %2, align 8
  %4 = getelementptr inbounds %"class.std::__1::vector", ptr %3, i32 0, i32 2
  %5 = call noundef nonnull align 1 dereferenceable(1) ptr @_ZNSt3__117__compressed_pairIPP4TaskNS_9allocatorIS2_EEE6secondB8ne190000Ev(ptr noundef nonnull align 8 dereferenceable(8) %4) #2
  ret ptr %5
}

; Function Attrs: mustprogress nounwind uwtable
define linkonce_odr hidden noundef nonnull align 8 dereferenceable(8) ptr @_ZNKSt3__122__compressed_pair_elemIPN7mitsuba6Thread13ThreadPrivateELi0ELb0EE5__getB8ne190000Ev(ptr noundef nonnull align 8 dereferenceable(8) %0) #1 comdat align 2 {
  %2 = alloca ptr, align 8
  store ptr %0, ptr %2, align 8
  %3 = load ptr, ptr %2, align 8
  %4 = getelementptr inbounds %"struct.std::__1::__compressed_pair_elem.8", ptr %3, i32 0, i32 0
  ret ptr %4
}

; Function Attrs: mustprogress nounwind uwtable
define linkonce_odr hidden void @_ZNSt3__16vectorIP4TaskNS_9allocatorIS2_EEE22__base_destruct_at_endB8ne190000EPS2_(ptr noundef nonnull align 8 dereferenceable(24) %0, ptr noundef %1) #1 comdat align 2 personality ptr @__gxx_personality_v0 {
  %3 = alloca ptr, align 8
  %4 = alloca ptr, align 8
  %5 = alloca ptr, align 8
  store ptr %0, ptr %3, align 8
  store ptr %1, ptr %4, align 8
  %6 = load ptr, ptr %3, align 8
  %7 = getelementptr inbounds %"class.std::__1::vector", ptr %6, i32 0, i32 1
  %8 = load ptr, ptr %7, align 8
  store ptr %8, ptr %5, align 8
  br label %9

9:                                                ; preds = %18, %2
  %10 = load ptr, ptr %4, align 8
  %11 = load ptr, ptr %5, align 8
  %12 = icmp ne ptr %10, %11
  br i1 %12, label %13, label %19

13:                                               ; preds = %9
  %14 = call noundef nonnull align 1 dereferenceable(1) ptr @_ZNSt3__16vectorIP4TaskNS_9allocatorIS2_EEE7__allocB8ne190000Ev(ptr noundef nonnull align 8 dereferenceable(24) %6) #2
  %15 = load ptr, ptr %5, align 8
  %16 = getelementptr inbounds ptr, ptr %15, i32 -1
  store ptr %16, ptr %5, align 8
  %17 = call noundef ptr @_ZNSt3__112__to_addressB8ne190000IP4TaskEEPT_S4_(ptr noundef %16) #2
  invoke void @_ZNSt3__116allocator_traitsINS_9allocatorIP4TaskEEE7destroyB8ne190000IS3_TnNS_9enable_ifIXsr13__has_destroyIS4_PT_EE5valueEiE4typeELi0EEEvRS4_S9_(ptr noundef nonnull align 1 dereferenceable(1) %14, ptr noundef %17)
          to label %18 unwind label %22

18:                                               ; preds = %13
  br label %9, !llvm.loop !13

19:                                               ; preds = %9
  %20 = load ptr, ptr %4, align 8
  %21 = getelementptr inbounds %"class.std::__1::vector", ptr %6, i32 0, i32 1
  store ptr %20, ptr %21, align 8
  ret void

22:                                               ; preds = %13
  %23 = landingpad { ptr, i32 }
          catch ptr null
  %24 = extractvalue { ptr, i32 } %23, 0
  call void @__clang_call_terminate(ptr %24) #22
  unreachable
}

; Function Attrs: mustprogress nounwind uwtable
define linkonce_odr hidden noundef ptr @_ZNKSt3__111__wrap_iterIPP4TaskE4baseB8ne190000Ev(ptr noundef nonnull align 8 dereferenceable(8) %0) #1 comdat align 2 {
  %2 = alloca ptr, align 8
  store ptr %0, ptr %2, align 8
  %3 = load ptr, ptr %2, align 8
  %4 = getelementptr inbounds %"class.std::__1::__wrap_iter", ptr %3, i32 0, i32 0
  %5 = load ptr, ptr %4, align 8
  ret ptr %5
}

; Function Attrs: mustprogress nounwind uwtable
define linkonce_odr hidden void @_ZNSt3__111__wrap_iterIPP4TaskEC2B8ne190000ES3_(ptr noundef nonnull align 8 dereferenceable(8) %0, ptr noundef %1) unnamed_addr #1 comdat align 2 {
  %3 = alloca ptr, align 8
  %4 = alloca ptr, align 8
  store ptr %0, ptr %3, align 8
  store ptr %1, ptr %4, align 8
  %5 = load ptr, ptr %3, align 8
  %6 = getelementptr inbounds %"class.std::__1::__wrap_iter", ptr %5, i32 0, i32 0
  %7 = load ptr, ptr %4, align 8
  store ptr %7, ptr %6, align 8
  ret void
}

; Function Attrs: mustprogress nounwind uwtable
define linkonce_odr hidden noundef nonnull align 8 dereferenceable(8) ptr @_ZNKSt3__117__compressed_pairIPN7mitsuba6Thread13ThreadPrivateENS_14default_deleteIS3_EEE5firstB8ne190000Ev(ptr noundef nonnull align 8 dereferenceable(8) %0) #1 comdat align 2 {
  %2 = alloca ptr, align 8
  store ptr %0, ptr %2, align 8
  %3 = load ptr, ptr %2, align 8
  %4 = call noundef nonnull align 8 dereferenceable(8) ptr @_ZNKSt3__122__compressed_pair_elemIPN7mitsuba6Thread13ThreadPrivateELi0ELb0EE5__getB8ne190000Ev(ptr noundef nonnull align 8 dereferenceable(8) %3) #2
  ret ptr %4
}

; Function Attrs: mustprogress nounwind uwtable
define linkonce_odr hidden void @_ZN7mitsuba14ThreadNotifier18ensure_initializedEv(ptr noundef nonnull align 1 dereferenceable(1) %0) #1 comdat align 2 {
  %2 = alloca ptr, align 8
  store ptr %0, ptr %2, align 8
  ret void
}

; Function Attrs: uwtable
define internal noundef ptr @_ZTWN7mitsubaL8notifierE() #10 {
  call void @_ZTHN7mitsubaL8notifierE()
  %1 = call align 1 ptr @llvm.threadlocal.address.p0(ptr align 1 @_ZN7mitsubaL8notifierE)
  ret ptr %1
}

; Function Attrs: mustprogress nounwind uwtable
define linkonce_odr hidden void @_ZNKSt3__16vectorIP4TaskNS_9allocatorIS2_EEE17__annotate_shrinkB8ne190000Em(ptr noundef nonnull align 8 dereferenceable(24) %0, i64 noundef %1) #1 comdat align 2 {
  %3 = alloca ptr, align 8
  %4 = alloca i64, align 8
  store ptr %0, ptr %3, align 8
  store i64 %1, ptr %4, align 8
  ret void
}

; Function Attrs: mustprogress nounwind uwtable
define linkonce_odr hidden void @_ZNSt3__16vectorIP4TaskNS_9allocatorIS2_EEE7__clearB8ne190000Ev(ptr noundef nonnull align 8 dereferenceable(24) %0) #1 comdat align 2 {
  %2 = alloca ptr, align 8
  store ptr %0, ptr %2, align 8
  %3 = load ptr, ptr %2, align 8
  %4 = getelementptr inbounds %"class.std::__1::vector", ptr %3, i32 0, i32 0
  %5 = load ptr, ptr %4, align 8
  call void @_ZNSt3__16vectorIP4TaskNS_9allocatorIS2_EEE22__base_destruct_at_endB8ne190000EPS2_(ptr noundef nonnull align 8 dereferenceable(24) %3, ptr noundef %5) #2
  ret void
}

; Function Attrs: mustprogress nounwind uwtable
define linkonce_odr hidden noundef i64 @_ZNKSt3__16vectorIP4TaskNS_9allocatorIS2_EEE4sizeB8ne190000Ev(ptr noundef nonnull align 8 dereferenceable(24) %0) #1 comdat align 2 {
  %2 = alloca ptr, align 8
  store ptr %0, ptr %2, align 8
  %3 = load ptr, ptr %2, align 8
  %4 = getelementptr inbounds %"class.std::__1::vector", ptr %3, i32 0, i32 1
  %5 = load ptr, ptr %4, align 8
  %6 = getelementptr inbounds %"class.std::__1::vector", ptr %3, i32 0, i32 0
  %7 = load ptr, ptr %6, align 8
  %8 = ptrtoint ptr %5 to i64
  %9 = ptrtoint ptr %7 to i64
  %10 = sub i64 %8, %9
  %11 = sdiv exact i64 %10, 8
  ret i64 %11
}

; Function Attrs: mustprogress nounwind uwtable
define linkonce_odr hidden noundef zeroext i1 @_ZNSt3__1eqB8ne190000IPP4TaskEEbRKNS_11__wrap_iterIT_EES8_(ptr noundef nonnull align 8 dereferenceable(8) %0, ptr noundef nonnull align 8 dereferenceable(8) %1) #1 comdat {
  %3 = alloca ptr, align 8
  %4 = alloca ptr, align 8
  store ptr %0, ptr %3, align 8
  store ptr %1, ptr %4, align 8
  %5 = load ptr, ptr %3, align 8
  %6 = call noundef ptr @_ZNKSt3__111__wrap_iterIPP4TaskE4baseB8ne190000Ev(ptr noundef nonnull align 8 dereferenceable(8) %5) #2
  %7 = load ptr, ptr %4, align 8
  %8 = call noundef ptr @_ZNKSt3__111__wrap_iterIPP4TaskE4baseB8ne190000Ev(ptr noundef nonnull align 8 dereferenceable(8) %7) #2
  %9 = icmp eq ptr %6, %8
  ret i1 %9
}

; Function Attrs: mustprogress nounwind uwtable
define linkonce_odr hidden ptr @_ZNSt3__16vectorIP4TaskNS_9allocatorIS2_EEE11__make_iterB8ne190000EPS2_(ptr noundef nonnull align 8 dereferenceable(24) %0, ptr noundef %1) #1 comdat align 2 {
  %3 = alloca %"class.std::__1::__wrap_iter", align 8
  %4 = alloca ptr, align 8
  %5 = alloca ptr, align 8
  store ptr %0, ptr %4, align 8
  store ptr %1, ptr %5, align 8
  %6 = load ptr, ptr %5, align 8
  call void @_ZNSt3__111__wrap_iterIPP4TaskEC2B8ne190000ES3_(ptr noundef nonnull align 8 dereferenceable(8) %3, ptr noundef %6) #2
  %7 = getelementptr inbounds %"class.std::__1::__wrap_iter", ptr %3, i32 0, i32 0
  %8 = load ptr, ptr %7, align 8
  ret ptr %8
}

; Function Attrs: mustprogress nounwind uwtable
define linkonce_odr hidden noundef ptr @_ZNKSt3__110unique_ptrIN7mitsuba6Thread13ThreadPrivateENS_14default_deleteIS3_EEEptB8ne190000Ev(ptr noundef nonnull align 8 dereferenceable(8) %0) #1 comdat align 2 {
  %2 = alloca ptr, align 8
  store ptr %0, ptr %2, align 8
  %3 = load ptr, ptr %2, align 8
  %4 = getelementptr inbounds %"class.std::__1::unique_ptr", ptr %3, i32 0, i32 0
  %5 = call noundef nonnull align 8 dereferenceable(8) ptr @_ZNKSt3__117__compressed_pairIPN7mitsuba6Thread13ThreadPrivateENS_14default_deleteIS3_EEE5firstB8ne190000Ev(ptr noundef nonnull align 8 dereferenceable(8) %4) #2
  %6 = load ptr, ptr %5, align 8
  ret ptr %6
}

; Function Attrs: mustprogress uwtable
define noundef ptr @_ZN7mitsuba6Thread6threadEv() #3 align 2 {
  %1 = alloca ptr, align 8
  %2 = call ptr @_ZTWN7mitsubaL8notifierE()
  call void @_ZN7mitsuba14ThreadNotifier18ensure_initializedEv(ptr noundef nonnull align 1 dereferenceable(1) %2)
  %3 = call align 8 ptr @llvm.threadlocal.address.p0(ptr align 8 @_ZN7mitsubaL4selfE)
  %4 = load ptr, ptr %3, align 8
  store ptr %4, ptr %1, align 8
  %5 = load ptr, ptr %1, align 8
  ret ptr %5
}

; Function Attrs: mustprogress nounwind uwtable
define linkonce_odr hidden void @_ZNSt3__16vectorIP4TaskNS_9allocatorIS2_EEE5clearB8ne190000Ev(ptr noundef nonnull align 8 dereferenceable(24) %0) #1 comdat align 2 {
  %2 = alloca ptr, align 8
  %3 = alloca i64, align 8
  store ptr %0, ptr %2, align 8
  %4 = load ptr, ptr %2, align 8
  %5 = call noundef i64 @_ZNKSt3__16vectorIP4TaskNS_9allocatorIS2_EEE4sizeB8ne190000Ev(ptr noundef nonnull align 8 dereferenceable(24) %4) #2
  store i64 %5, ptr %3, align 8
  call void @_ZNSt3__16vectorIP4TaskNS_9allocatorIS2_EEE7__clearB8ne190000Ev(ptr noundef nonnull align 8 dereferenceable(24) %4) #2
  %6 = load i64, ptr %3, align 8
  call void @_ZNKSt3__16vectorIP4TaskNS_9allocatorIS2_EEE17__annotate_shrinkB8ne190000Em(ptr noundef nonnull align 8 dereferenceable(24) %4, i64 noundef %6) #2
  ret void
}

; Function Attrs: mustprogress nounwind uwtable
define linkonce_odr hidden noundef nonnull align 8 dereferenceable(8) ptr @_ZNSt3__111__wrap_iterIPP4TaskEppB8ne190000Ev(ptr noundef nonnull align 8 dereferenceable(8) %0) #1 comdat align 2 {
  %2 = alloca ptr, align 8
  store ptr %0, ptr %2, align 8
  %3 = load ptr, ptr %2, align 8
  %4 = getelementptr inbounds %"class.std::__1::__wrap_iter", ptr %3, i32 0, i32 0
  %5 = load ptr, ptr %4, align 8
  %6 = getelementptr inbounds ptr, ptr %5, i32 1
  store ptr %6, ptr %4, align 8
  ret ptr %3
}

; Function Attrs: mustprogress nounwind uwtable
define linkonce_odr hidden noundef nonnull align 8 dereferenceable(8) ptr @_ZNKSt3__111__wrap_iterIPP4TaskEdeB8ne190000Ev(ptr noundef nonnull align 8 dereferenceable(8) %0) #1 comdat align 2 {
  %2 = alloca ptr, align 8
  store ptr %0, ptr %2, align 8
  %3 = load ptr, ptr %2, align 8
  %4 = getelementptr inbounds %"class.std::__1::__wrap_iter", ptr %3, i32 0, i32 0
  %5 = load ptr, ptr %4, align 8
  ret ptr %5
}

; Function Attrs: mustprogress nounwind uwtable
define linkonce_odr hidden noundef zeroext i1 @_ZNSt3__1neB8ne190000IPP4TaskEEbRKNS_11__wrap_iterIT_EES8_(ptr noundef nonnull align 8 dereferenceable(8) %0, ptr noundef nonnull align 8 dereferenceable(8) %1) #1 comdat {
  %3 = alloca ptr, align 8
  %4 = alloca ptr, align 8
  store ptr %0, ptr %3, align 8
  store ptr %1, ptr %4, align 8
  %5 = load ptr, ptr %3, align 8
  %6 = load ptr, ptr %4, align 8
  %7 = call noundef zeroext i1 @_ZNSt3__1eqB8ne190000IPP4TaskEEbRKNS_11__wrap_iterIT_EES8_(ptr noundef nonnull align 8 dereferenceable(8) %5, ptr noundef nonnull align 8 dereferenceable(8) %6) #2
  %8 = xor i1 %7, true
  ret i1 %8
}

; Function Attrs: mustprogress nounwind uwtable
define linkonce_odr hidden ptr @_ZNSt3__16vectorIP4TaskNS_9allocatorIS2_EEE3endB8ne190000Ev(ptr noundef nonnull align 8 dereferenceable(24) %0) #1 comdat align 2 {
  %2 = alloca %"class.std::__1::__wrap_iter", align 8
  %3 = alloca ptr, align 8
  store ptr %0, ptr %3, align 8
  %4 = load ptr, ptr %3, align 8
  %5 = getelementptr inbounds %"class.std::__1::vector", ptr %4, i32 0, i32 1
  %6 = load ptr, ptr %5, align 8
  %7 = call ptr @_ZNSt3__16vectorIP4TaskNS_9allocatorIS2_EEE11__make_iterB8ne190000EPS2_(ptr noundef nonnull align 8 dereferenceable(24) %4, ptr noundef %6) #2
  %8 = getelementptr inbounds %"class.std::__1::__wrap_iter", ptr %2, i32 0, i32 0
  store ptr %7, ptr %8, align 8
  %9 = getelementptr inbounds %"class.std::__1::__wrap_iter", ptr %2, i32 0, i32 0
  %10 = load ptr, ptr %9, align 8
  ret ptr %10
}

; Function Attrs: mustprogress nounwind uwtable
define linkonce_odr hidden ptr @_ZNSt3__16vectorIP4TaskNS_9allocatorIS2_EEE5beginB8ne190000Ev(ptr noundef nonnull align 8 dereferenceable(24) %0) #1 comdat align 2 {
  %2 = alloca %"class.std::__1::__wrap_iter", align 8
  %3 = alloca ptr, align 8
  store ptr %0, ptr %3, align 8
  %4 = load ptr, ptr %3, align 8
  %5 = getelementptr inbounds %"class.std::__1::vector", ptr %4, i32 0, i32 0
  %6 = load ptr, ptr %5, align 8
  %7 = call ptr @_ZNSt3__16vectorIP4TaskNS_9allocatorIS2_EEE11__make_iterB8ne190000EPS2_(ptr noundef nonnull align 8 dereferenceable(24) %4, ptr noundef %6) #2
  %8 = getelementptr inbounds %"class.std::__1::__wrap_iter", ptr %2, i32 0, i32 0
  store ptr %7, ptr %8, align 8
  %9 = getelementptr inbounds %"class.std::__1::__wrap_iter", ptr %2, i32 0, i32 0
  %10 = load ptr, ptr %9, align 8
  ret ptr %10
}

; Function Attrs: mustprogress uwtable
define void @_ZN7mitsuba6Thread15static_shutdownEv() #3 align 2 {
  %1 = alloca ptr, align 8
  %2 = alloca %"class.std::__1::__wrap_iter", align 8
  %3 = alloca %"class.std::__1::__wrap_iter", align 8
  %4 = alloca ptr, align 8
  store ptr @_ZN7mitsubaL16registered_tasksE, ptr %1, align 8
  %5 = call ptr @_ZNSt3__16vectorIP4TaskNS_9allocatorIS2_EEE5beginB8ne190000Ev(ptr noundef nonnull align 8 dereferenceable(24) @_ZN7mitsubaL16registered_tasksE) #2
  %6 = getelementptr inbounds %"class.std::__1::__wrap_iter", ptr %2, i32 0, i32 0
  store ptr %5, ptr %6, align 8
  %7 = call ptr @_ZNSt3__16vectorIP4TaskNS_9allocatorIS2_EEE3endB8ne190000Ev(ptr noundef nonnull align 8 dereferenceable(24) @_ZN7mitsubaL16registered_tasksE) #2
  %8 = getelementptr inbounds %"class.std::__1::__wrap_iter", ptr %3, i32 0, i32 0
  store ptr %7, ptr %8, align 8
  br label %9

9:                                                ; preds = %15, %0
  %10 = call noundef zeroext i1 @_ZNSt3__1neB8ne190000IPP4TaskEEbRKNS_11__wrap_iterIT_EES8_(ptr noundef nonnull align 8 dereferenceable(8) %2, ptr noundef nonnull align 8 dereferenceable(8) %3) #2
  br i1 %10, label %11, label %17

11:                                               ; preds = %9
  %12 = call noundef nonnull align 8 dereferenceable(8) ptr @_ZNKSt3__111__wrap_iterIPP4TaskEdeB8ne190000Ev(ptr noundef nonnull align 8 dereferenceable(8) %2) #2
  store ptr %12, ptr %4, align 8
  %13 = load ptr, ptr %4, align 8
  %14 = load ptr, ptr %13, align 8
  call void @task_wait_and_release(ptr noundef %14)
  br label %15

15:                                               ; preds = %11
  %16 = call noundef nonnull align 8 dereferenceable(8) ptr @_ZNSt3__111__wrap_iterIPP4TaskEppB8ne190000Ev(ptr noundef nonnull align 8 dereferenceable(8) %2) #2
  br label %9

17:                                               ; preds = %9
  call void @_ZNSt3__16vectorIP4TaskNS_9allocatorIS2_EEE5clearB8ne190000Ev(ptr noundef nonnull align 8 dereferenceable(24) @_ZN7mitsubaL16registered_tasksE) #2
  %18 = call noundef ptr @_ZN7mitsuba6Thread6threadEv()
  %19 = getelementptr inbounds %"class.mitsuba::Thread", ptr %18, i32 0, i32 1
  %20 = call noundef ptr @_ZNKSt3__110unique_ptrIN7mitsuba6Thread13ThreadPrivateENS_14default_deleteIS3_EEEptB8ne190000Ev(ptr noundef nonnull align 8 dereferenceable(8) %19) #2
  %21 = getelementptr inbounds %"struct.mitsuba::Thread::ThreadPrivate", ptr %20, i32 0, i32 3
  store i8 0, ptr %21, align 8
  %22 = call align 8 ptr @llvm.threadlocal.address.p0(ptr align 8 @_ZN7mitsubaL4selfE)
  %23 = load ptr, ptr %22, align 8
  %24 = icmp eq ptr %23, null
  br i1 %24, label %29, label %25

25:                                               ; preds = %17
  %26 = load ptr, ptr %23, align 8
  %27 = getelementptr inbounds ptr, ptr %26, i64 8
  %28 = load ptr, ptr %27, align 8
  call void %28(ptr noundef nonnull align 8 dereferenceable(24) %23) #2
  br label %29

29:                                               ; preds = %25, %17
  %30 = call align 8 ptr @llvm.threadlocal.address.p0(ptr align 8 @_ZN7mitsubaL4selfE)
  store ptr null, ptr %30, align 8
  %31 = load i32, ptr @_ZN7mitsubaL14this_thread_idE, align 4
  %32 = call i32 @pthread_key_delete(i32 noundef %31) #2
  ret void
}