; Function Attrs: uwtable
define void @_ZN7mitsuba6Thread15static_shutdownEv() local_unnamed_addr #16 align 2 personality ptr @__gxx_personality_v0 {
  %1 = load ptr, ptr @_ZN7mitsubaL16registered_tasksE, align 8
  %2 = load ptr, ptr getelementptr inbounds (%"class.std::__1::vector", ptr @_ZN7mitsubaL16registered_tasksE, i64 0, i32 1), align 8
  %.not4 = icmp eq ptr %1, %2
  br i1 %.not4, label %._crit_edge, label %.lr.ph

.lr.ph:                                           ; preds = %0, %.lr.ph
  %.sroa.01.05 = phi ptr [ %4, %.lr.ph ], [ %1, %0 ]
  %3 = load ptr, ptr %.sroa.01.05, align 8
  tail call void @task_wait_and_release(ptr noundef %3)
  %4 = getelementptr inbounds i8, ptr %.sroa.01.05, i64 8
  %.not = icmp eq ptr %4, %2
  br i1 %.not, label %._crit_edge.loopexit, label %.lr.ph

._crit_edge.loopexit:                             ; preds = %.lr.ph
  %.pre = load ptr, ptr @_ZN7mitsubaL16registered_tasksE, align 8
  br label %._crit_edge

._crit_edge:                                      ; preds = %._crit_edge.loopexit, %0
  %5 = phi ptr [ %.pre, %._crit_edge.loopexit ], [ %1, %0 ]
  store ptr %5, ptr getelementptr inbounds (%"class.std::__1::vector", ptr @_ZN7mitsubaL16registered_tasksE, i64 0, i32 1), align 8
  %.b.i.i.i = load i1, ptr @__tls_guard, align 1
  br i1 %.b.i.i.i, label %_ZN7mitsuba6Thread6threadEv.exit, label %6, !prof !4

6:                                                ; preds = %._crit_edge
  store i1 true, ptr @__tls_guard, align 1
  tail call fastcc void @__cxx_global_var_init.1()
  br label %_ZN7mitsuba6Thread6threadEv.exit

_ZN7mitsuba6Thread6threadEv.exit:                 ; preds = %._crit_edge, %6
  %7 = tail call align 8 ptr @llvm.threadlocal.address.p0(ptr align 8 @_ZN7mitsubaL4selfE)
  %8 = load ptr, ptr %7, align 8
  %9 = getelementptr inbounds i8, ptr %8, i64 16
  %10 = load ptr, ptr %9, align 8
  %11 = getelementptr inbounds i8, ptr %10, i64 40
  store i8 0, ptr %11, align 8
  %12 = load ptr, ptr %7, align 8
  %13 = icmp eq ptr %12, null
  br i1 %13, label %18, label %14

14:                                               ; preds = %_ZN7mitsuba6Thread6threadEv.exit
  %15 = load ptr, ptr %12, align 8
  %16 = getelementptr inbounds i8, ptr %15, i64 64
  %17 = load ptr, ptr %16, align 8
  tail call void %17(ptr noundef nonnull align 8 dereferenceable(24) %12) #3
  br label %18

18:                                               ; preds = %14, %_ZN7mitsuba6Thread6threadEv.exit
  store ptr null, ptr %7, align 8
  %19 = load i32, ptr @_ZN7mitsubaL14this_thread_idE, align 4
  %20 = tail call i32 @pthread_key_delete(i32 noundef %19) #3
  ret void
}